target datalayout = "e-m:e-p270:32:32-p271:32:32-p272:64:64-i64:64-i128:128-f80:128-n8:16:32:64-S128"
target triple = "x86_64-pc-linux-gnu"

@bio_err = external global ptr, align 8
@.str.30 = private unnamed_addr constant [15 x i8] c"key parameters\00", align 1
@.str.31 = private unnamed_addr constant [56 x i8] c"Unable to load %s from %s (unexpected parameters type)\0A\00", align 1

; Function Attrs: nounwind uwtable
define dso_local ptr @load_keyparams_suppress(ptr noundef %0, i32 noundef %1, i32 noundef %2, ptr noundef %3, ptr noundef %4, i32 noundef %5) #0 {
  %7 = alloca ptr, align 8
  %8 = alloca i32, align 4
  %9 = alloca i32, align 4
  %10 = alloca ptr, align 8
  %11 = alloca ptr, align 8
  %12 = alloca i32, align 4
  %13 = alloca ptr, align 8
  store ptr %0, ptr %7, align 8, !tbaa !9
  store i32 %1, ptr %8, align 4, !tbaa !25
  store i32 %2, ptr %9, align 4, !tbaa !25
  store ptr %3, ptr %10, align 8, !tbaa !9
  store ptr %4, ptr %11, align 8, !tbaa !9
  store i32 %5, ptr %12, align 4, !tbaa !25
  call void @llvm.lifetime.start.p0(i64 8, ptr %13) #12
  store ptr null, ptr %13, align 8, !tbaa !67
  %14 = load ptr, ptr %11, align 8, !tbaa !9
  %15 = icmp eq ptr %14, null
  br i1 %15, label %16, label %17

16:                                               ; preds = %6
  store ptr @.str.30, ptr %11, align 8, !tbaa !9
  br label %17

17:                                               ; preds = %16, %6
  %18 = load ptr, ptr %7, align 8, !tbaa !9
  %19 = load i32, ptr %8, align 4, !tbaa !25
  %20 = load i32, ptr %9, align 4, !tbaa !25
  %21 = load ptr, ptr %11, align 8, !tbaa !9
  %22 = load i32, ptr %12, align 4, !tbaa !25
  %23 = call i32 @load_key_certs_crls(ptr noundef %18, i32 noundef %19, i32 noundef %20, ptr noundef null, ptr noundef %21, i32 noundef %22, ptr noundef null, ptr noundef null, ptr noundef %13, ptr noundef null, ptr noundef null, ptr noundef null, ptr noundef null)
  %24 = load ptr, ptr %13, align 8, !tbaa !67
  %25 = icmp ne ptr %24, null
  br i1 %25, label %26, label %41

26:                                               ; preds = %17
  %27 = load ptr, ptr %10, align 8, !tbaa !9
  %28 = icmp ne ptr %27, null
  br i1 %28, label %29, label %41

29:                                               ; preds = %26
  %30 = load ptr, ptr %13, align 8, !tbaa !67
  %31 = load ptr, ptr %10, align 8, !tbaa !9
  %32 = call i32 @EVP_PKEY_is_a(ptr noundef %30, ptr noundef %31)
  %33 = icmp ne i32 %32, 0
  br i1 %33, label %41, label %34

34:                                               ; preds = %29
  %35 = load ptr, ptr @bio_err, align 8, !tbaa !35
  call void @ERR_print_errors(ptr noundef %35)
  %36 = load ptr, ptr @bio_err, align 8, !tbaa !35
  %37 = load ptr, ptr %11, align 8, !tbaa !9
  %38 = load ptr, ptr %7, align 8, !tbaa !9
  %39 = call i32 (ptr, ptr, ...) @BIO_printf(ptr noundef %36, ptr noundef @.str.31, ptr noundef %37, ptr noundef %38)
  %40 = load ptr, ptr %13, align 8, !tbaa !67
  call void @EVP_PKEY_free(ptr noundef %40)
  store ptr null, ptr %13, align 8, !tbaa !67
  br label %41

41:                                               ; preds = %34, %29, %26, %17
  %42 = load ptr, ptr %13, align 8, !tbaa !67
  call void @llvm.lifetime.end.p0(i64 8, ptr %13) #12
  ret ptr %42
}