; Function Attrs: nounwind uwtable
define dso_local ptr @load_keyparams_suppress(ptr noundef %0, i32 noundef %1, i32 noundef %2, ptr noundef %3, ptr noundef %4, i32 noundef %5) local_unnamed_addr #0 {
  %7 = alloca ptr, align 8
  call void @llvm.lifetime.start.p0(i64 8, ptr nonnull %7) #27
  store ptr null, ptr %7, align 8, !tbaa !37
  %8 = icmp eq ptr %4, null
  %spec.store.select = select i1 %8, ptr @.str.30, ptr %4
  %9 = call i32 @load_key_certs_crls(ptr noundef %0, i32 noundef %1, i32 noundef %2, ptr noundef null, ptr noundef nonnull %spec.store.select, i32 noundef %5, ptr noundef null, ptr noundef null, ptr noundef nonnull %7, ptr noundef null, ptr noundef null, ptr noundef null, ptr noundef null)
  %10 = load ptr, ptr %7, align 8, !tbaa !37
  %11 = icmp ne ptr %10, null
  %12 = icmp ne ptr %3, null
  %or.cond = and i1 %12, %11
  br i1 %or.cond, label %13, label %20

13:                                               ; preds = %6
  %14 = call i32 @EVP_PKEY_is_a(ptr noundef nonnull %10, ptr noundef nonnull %3) #27
  %.not = icmp eq i32 %14, 0
  br i1 %.not, label %15, label %._crit_edge

._crit_edge:                                      ; preds = %13
  %.pre = load ptr, ptr %7, align 8, !tbaa !37
  br label %20

15:                                               ; preds = %13
  %16 = load ptr, ptr @bio_err, align 8, !tbaa !26
  call void @ERR_print_errors(ptr noundef %16) #27
  %17 = load ptr, ptr @bio_err, align 8, !tbaa !26
  %18 = call i32 (ptr, ptr, ...) @BIO_printf(ptr noundef %17, ptr noundef nonnull @.str.31, ptr noundef nonnull %spec.store.select, ptr noundef %0) #27
  %19 = load ptr, ptr %7, align 8, !tbaa !37
  call void @EVP_PKEY_free(ptr noundef %19) #27
  br label %20

20:                                               ; preds = %._crit_edge, %15, %6
  %21 = phi ptr [ %.pre, %._crit_edge ], [ null, %15 ], [ %10, %6 ]
  call void @llvm.lifetime.end.p0(i64 8, ptr nonnull %7) #27
  ret ptr %21
}